; Function Attrs: mustprogress uwtable
define hidden noundef ptr @_ZN23bvarray2uf_rewriter_cfg14get_value_sortEP4sort(ptr noundef nonnull readnone align 8 captures(none) dereferenceable(128) %0, ptr noundef readonly captures(none) %1) local_unnamed_addr #3 align 2 {
  %3 = getelementptr inbounds nuw i8, ptr %1, i64 24
  %4 = load ptr, ptr %3, align 8, !tbaa !52
  %5 = icmp eq ptr %4, null
  br i1 %5, label %._ZNK4decl18get_num_parametersEv.exit_crit_edge, label %6

._ZNK4decl18get_num_parametersEv.exit_crit_edge:  ; preds = %2
  %.pre = load ptr, ptr inttoptr (i64 8 to ptr), align 8, !tbaa !57
  br label %_ZNK4decl18get_num_parametersEv.exit

6:                                                ; preds = %2
  %7 = getelementptr inbounds nuw i8, ptr %4, i64 8
  %8 = load ptr, ptr %7, align 8, !tbaa !57
  %9 = icmp eq ptr %8, null
  br i1 %9, label %_ZNK4decl18get_num_parametersEv.exit, label %10

10:                                               ; preds = %6
  %11 = getelementptr inbounds i8, ptr %8, i64 -4
  %12 = load i32, ptr %11, align 4, !tbaa !40
  %13 = add i32 %12, -1
  %14 = zext i32 %13 to i64
  br label %_ZNK4decl18get_num_parametersEv.exit

_ZNK4decl18get_num_parametersEv.exit:             ; preds = %._ZNK4decl18get_num_parametersEv.exit_crit_edge, %6, %10
  %15 = phi ptr [ %.pre, %._ZNK4decl18get_num_parametersEv.exit_crit_edge ], [ %8, %10 ], [ null, %6 ]
  %16 = phi i64 [ 4294967295, %._ZNK4decl18get_num_parametersEv.exit_crit_edge ], [ %14, %10 ], [ 4294967295, %6 ]
  %17 = getelementptr inbounds nuw %class.parameter, ptr %15, i64 %16
  %18 = getelementptr inbounds nuw i8, ptr %17, i64 8
  %19 = load i8, ptr %18, align 8, !tbaa !60
  %.not.i.i.i = icmp eq i8 %19, 1
  br i1 %.not.i.i.i, label %_ZNK9parameter7get_astEv.exit, label %20

20:                                               ; preds = %_ZNK4decl18get_num_parametersEv.exit
  %21 = tail call ptr @__cxa_allocate_exception(i64 16) #20
  store ptr getelementptr inbounds nuw inrange(-16, 24) (i8, ptr @_ZTVSt18bad_variant_access, i64 16), ptr %21, align 8, !tbaa !65
  %22 = getelementptr inbounds nuw i8, ptr %21, i64 8
  store ptr @.str.9, ptr %22, align 8, !tbaa !67
  tail call void @__cxa_throw(ptr nonnull %21, ptr nonnull @_ZTISt18bad_variant_access, ptr nonnull @_ZNSt9exceptionD2Ev) #22
  unreachable

_ZNK9parameter7get_astEv.exit:                    ; preds = %_ZNK4decl18get_num_parametersEv.exit
  %23 = load ptr, ptr %17, align 8, !tbaa !62
  ret ptr %23
}